target datalayout = "e-m:e-p270:32:32-p271:32:32-p272:64:64-i64:64-i128:128-f80:128-n8:16:32:64-S128"
target triple = "x86_64-pc-linux-gnu"

%struct.H5T_t = type { %struct.H5O_shared_t, ptr, %struct.H5O_loc_t, %struct.H5G_name_t, ptr }
%struct.H5O_shared_t = type { i32, ptr, i32, %union.anon }
%union.anon = type { %struct.H5O_mesg_loc_t }
%struct.H5O_mesg_loc_t = type { i32, i64 }
%struct.H5O_loc_t = type { ptr, i64, i8 }
%struct.H5G_name_t = type { ptr, ptr, i32 }
%struct.H5T_shared_t = type { i64, i32, i32, i64, i32, i8, ptr, ptr, %union.anon.0 }
%union.anon.0 = type { %struct.H5T_array_t }
%struct.H5T_array_t = type { i64, i32, [32 x i64] }

@H5_libinit_g = external global i8, align 1
@H5_libterm_g = external global i8, align 1
@.str = private unnamed_addr constant [102 x i8] c"generated/home/dtcxzyw/WorkSpace/Projects/compilers/llvm-opt-benchmark/bench/hdf5/hdf5/src/H5Tarray.c\00", align 1
@H5E_FUNC_g = external global i64, align 8
@H5E_CANTINIT_g = external global i64, align 8
@.str.1 = private unnamed_addr constant [30 x i8] c"library initialization failed\00", align 1
@H5E_CANTSET_g = external global i64, align 8
@.str.2 = private unnamed_addr constant [22 x i8] c"can't set API context\00", align 1
@H5E_ARGS_g = external global i64, align 8
@H5E_BADTYPE_g = external global i64, align 8
@.str.12 = private unnamed_addr constant [22 x i8] c"not a datatype object\00", align 1
@.str.13 = private unnamed_addr constant [22 x i8] c"not an array datatype\00", align 1
@.str.14 = private unnamed_addr constant [30 x i8] c"unable to get dimension sizes\00", align 1
@__func__.H5Tget_array_dims1 = private unnamed_addr constant [19 x i8] c"H5Tget_array_dims1\00", align 1

; Function Attrs: nounwind uwtable
define i32 @H5T__get_array_dims(ptr noundef %0, ptr noundef %1) #0 {
  %3 = alloca ptr, align 8
  %4 = alloca ptr, align 8
  %5 = alloca i32, align 4
  store ptr %0, ptr %3, align 8
  store ptr %1, ptr %4, align 8
  %6 = load ptr, ptr %4, align 8
  %7 = icmp ne ptr %6, null
  br i1 %7, label %8, label %36

8:                                                ; preds = %2
  store i32 0, ptr %5, align 4
  br label %9

9:                                                ; preds = %32, %8
  %10 = load i32, ptr %5, align 4
  %11 = load ptr, ptr %3, align 8
  %12 = getelementptr inbounds %struct.H5T_t, ptr %11, i32 0, i32 1
  %13 = load ptr, ptr %12, align 8
  %14 = getelementptr inbounds %struct.H5T_shared_t, ptr %13, i32 0, i32 8
  %15 = getelementptr inbounds %struct.H5T_array_t, ptr %14, i32 0, i32 1
  %16 = load i32, ptr %15, align 8
  %17 = icmp ult i32 %10, %16
  br i1 %17, label %18, label %35

18:                                               ; preds = %9
  %19 = load ptr, ptr %3, align 8
  %20 = getelementptr inbounds %struct.H5T_t, ptr %19, i32 0, i32 1
  %21 = load ptr, ptr %20, align 8
  %22 = getelementptr inbounds %struct.H5T_shared_t, ptr %21, i32 0, i32 8
  %23 = getelementptr inbounds %struct.H5T_array_t, ptr %22, i32 0, i32 2
  %24 = load i32, ptr %5, align 4
  %25 = zext i32 %24 to i64
  %26 = getelementptr inbounds [32 x i64], ptr %23, i64 0, i64 %25
  %27 = load i64, ptr %26, align 8
  %28 = load ptr, ptr %4, align 8
  %29 = load i32, ptr %5, align 4
  %30 = zext i32 %29 to i64
  %31 = getelementptr inbounds i64, ptr %28, i64 %30
  store i64 %27, ptr %31, align 8
  br label %32

32:                                               ; preds = %18
  %33 = load i32, ptr %5, align 4
  %34 = add i32 %33, 1
  store i32 %34, ptr %5, align 4
  br label %9

35:                                               ; preds = %9
  br label %36

36:                                               ; preds = %35, %2
  %37 = load ptr, ptr %3, align 8
  %38 = getelementptr inbounds %struct.H5T_t, ptr %37, i32 0, i32 1
  %39 = load ptr, ptr %38, align 8
  %40 = getelementptr inbounds %struct.H5T_shared_t, ptr %39, i32 0, i32 8
  %41 = getelementptr inbounds %struct.H5T_array_t, ptr %40, i32 0, i32 1
  %42 = load i32, ptr %41, align 8
  ret i32 %42
}

; Function Attrs: nounwind uwtable
define i32 @H5Tget_array_dims1(i64 noundef %0, ptr noundef %1, ptr noundef %2) #0 {
  %4 = alloca i64, align 8
  %5 = alloca ptr, align 8
  %6 = alloca ptr, align 8
  %7 = alloca ptr, align 8
  %8 = alloca i32, align 4
  %9 = alloca i8, align 1
  %10 = alloca i8, align 1
  store i64 %0, ptr %4, align 8
  store ptr %1, ptr %5, align 8
  store ptr %2, ptr %6, align 8
  store i8 0, ptr %9, align 1
  store i8 0, ptr %10, align 1
  %11 = load i8, ptr @H5_libinit_g, align 1
  %12 = trunc i8 %11 to i1
  br i1 %12, label %17, label %13

13:                                               ; preds = %3
  %14 = load i8, ptr @H5_libterm_g, align 1
  %15 = trunc i8 %14 to i1
  %16 = xor i1 %15, true
  br label %17

17:                                               ; preds = %13, %3
  %18 = phi i1 [ false, %3 ], [ %16, %13 ]
  %19 = xor i1 %18, true
  %20 = xor i1 %19, true
  %21 = zext i1 %20 to i32
  %22 = sext i32 %21 to i64
  %23 = icmp ne i64 %22, 0
  br i1 %23, label %24, label %48

24:                                               ; preds = %17
  %25 = call i32 @H5_init_library()
  %26 = icmp slt i32 %25, 0
  %27 = xor i1 %26, true
  %28 = xor i1 %27, true
  %29 = zext i1 %28 to i32
  %30 = sext i32 %29 to i64
  %31 = icmp ne i64 %30, 0
  br i1 %31, label %32, label %47

32:                                               ; preds = %24
  br label %33

33:                                               ; preds = %32
  br label %34

34:                                               ; preds = %33
  br label %35

35:                                               ; preds = %34
  %36 = load i64, ptr @H5E_FUNC_g, align 8
  %37 = load i64, ptr @H5E_CANTINIT_g, align 8
  %38 = call i32 (ptr, ptr, i32, i64, i64, ptr, ...) @H5E_printf_stack(ptr noundef @.str, ptr noundef @__func__.H5Tget_array_dims1, i32 noundef 362, i64 noundef %36, i64 noundef %37, ptr noundef @.str.1)
  br label %39

39:                                               ; preds = %35
  store i8 1, ptr %10, align 1
  %40 = load i8, ptr %10, align 1
  %41 = trunc i8 %40 to i1
  %42 = zext i1 %41 to i8
  store i8 %42, ptr %10, align 1
  br label %43

43:                                               ; preds = %39
  br label %44

44:                                               ; preds = %43
  store i32 -1, ptr %8, align 4
  br label %135

45:                                               ; No predecessors!
  br label %46

46:                                               ; preds = %45
  br label %47

47:                                               ; preds = %46, %24
  br label %48

48:                                               ; preds = %47, %17
  %49 = call i32 @H5CX_push()
  %50 = icmp slt i32 %49, 0
  %51 = xor i1 %50, true
  %52 = xor i1 %51, true
  %53 = zext i1 %52 to i32
  %54 = sext i32 %53 to i64
  %55 = icmp ne i64 %54, 0
  br i1 %55, label %56, label %71

56:                                               ; preds = %48
  br label %57

57:                                               ; preds = %56
  br label %58

58:                                               ; preds = %57
  br label %59

59:                                               ; preds = %58
  %60 = load i64, ptr @H5E_FUNC_g, align 8
  %61 = load i64, ptr @H5E_CANTSET_g, align 8
  %62 = call i32 (ptr, ptr, i32, i64, i64, ptr, ...) @H5E_printf_stack(ptr noundef @.str, ptr noundef @__func__.H5Tget_array_dims1, i32 noundef 362, i64 noundef %60, i64 noundef %61, ptr noundef @.str.2)
  br label %63

63:                                               ; preds = %59
  store i8 1, ptr %10, align 1
  %64 = load i8, ptr %10, align 1
  %65 = trunc i8 %64 to i1
  %66 = zext i1 %65 to i8
  store i8 %66, ptr %10, align 1
  br label %67

67:                                               ; preds = %63
  br label %68

68:                                               ; preds = %67
  store i32 -1, ptr %8, align 4
  br label %135

69:                                               ; No predecessors!
  br label %70

70:                                               ; preds = %69
  br label %72

71:                                               ; preds = %48
  store i8 1, ptr %9, align 1
  br label %72

72:                                               ; preds = %71, %70
  %73 = call i32 @H5E_clear_stack()
  %74 = load i64, ptr %4, align 8
  %75 = call ptr @H5I_object_verify(i64 noundef %74, i32 noundef 3)
  store ptr %75, ptr %7, align 8
  %76 = icmp eq ptr null, %75
  br i1 %76, label %77, label %92

77:                                               ; preds = %72
  br label %78

78:                                               ; preds = %77
  br label %79

79:                                               ; preds = %78
  br label %80

80:                                               ; preds = %79
  %81 = load i64, ptr @H5E_ARGS_g, align 8
  %82 = load i64, ptr @H5E_BADTYPE_g, align 8
  %83 = call i32 (ptr, ptr, i32, i64, i64, ptr, ...) @H5E_printf_stack(ptr noundef @.str, ptr noundef @__func__.H5Tget_array_dims1, i32 noundef 366, i64 noundef %81, i64 noundef %82, ptr noundef @.str.12)
  br label %84

84:                                               ; preds = %80
  store i8 1, ptr %10, align 1
  %85 = load i8, ptr %10, align 1
  %86 = trunc i8 %85 to i1
  %87 = zext i1 %86 to i8
  store i8 %87, ptr %10, align 1
  br label %88

88:                                               ; preds = %84
  br label %89

89:                                               ; preds = %88
  store i32 -1, ptr %8, align 4
  br label %135

90:                                               ; No predecessors!
  br label %91

91:                                               ; preds = %90
  br label %92

92:                                               ; preds = %91, %72
  %93 = load ptr, ptr %7, align 8
  %94 = getelementptr inbounds %struct.H5T_t, ptr %93, i32 0, i32 1
  %95 = load ptr, ptr %94, align 8
  %96 = getelementptr inbounds %struct.H5T_shared_t, ptr %95, i32 0, i32 2
  %97 = load i32, ptr %96, align 4
  %98 = icmp ne i32 %97, 10
  br i1 %98, label %99, label %114

99:                                               ; preds = %92
  br label %100

100:                                              ; preds = %99
  br label %101

101:                                              ; preds = %100
  br label %102

102:                                              ; preds = %101
  %103 = load i64, ptr @H5E_ARGS_g, align 8
  %104 = load i64, ptr @H5E_BADTYPE_g, align 8
  %105 = call i32 (ptr, ptr, i32, i64, i64, ptr, ...) @H5E_printf_stack(ptr noundef @.str, ptr noundef @__func__.H5Tget_array_dims1, i32 noundef 368, i64 noundef %103, i64 noundef %104, ptr noundef @.str.13)
  br label %106

106:                                              ; preds = %102
  store i8 1, ptr %10, align 1
  %107 = load i8, ptr %10, align 1
  %108 = trunc i8 %107 to i1
  %109 = zext i1 %108 to i8
  store i8 %109, ptr %10, align 1
  br label %110

110:                                              ; preds = %106
  br label %111

111:                                              ; preds = %110
  store i32 -1, ptr %8, align 4
  br label %135

112:                                              ; No predecessors!
  br label %113

113:                                              ; preds = %112
  br label %114

114:                                              ; preds = %113, %92
  %115 = load ptr, ptr %7, align 8
  %116 = load ptr, ptr %5, align 8
  %117 = call i32 @H5T__get_array_dims(ptr noundef %115, ptr noundef %116)
  store i32 %117, ptr %8, align 4
  %118 = icmp slt i32 %117, 0
  br i1 %118, label %119, label %134

119:                                              ; preds = %114
  br label %120

120:                                              ; preds = %119
  br label %121

121:                                              ; preds = %120
  br label %122

122:                                              ; preds = %121
  %123 = load i64, ptr @H5E_ARGS_g, align 8
  %124 = load i64, ptr @H5E_BADTYPE_g, align 8
  %125 = call i32 (ptr, ptr, i32, i64, i64, ptr, ...) @H5E_printf_stack(ptr noundef @.str, ptr noundef @__func__.H5Tget_array_dims1, i32 noundef 372, i64 noundef %123, i64 noundef %124, ptr noundef @.str.14)
  br label %126

126:                                              ; preds = %122
  store i8 1, ptr %10, align 1
  %127 = load i8, ptr %10, align 1
  %128 = trunc i8 %127 to i1
  %129 = zext i1 %128 to i8
  store i8 %129, ptr %10, align 1
  br label %130

130:                                              ; preds = %126
  br label %131

131:                                              ; preds = %130
  store i32 -1, ptr %8, align 4
  br label %135

132:                                              ; No predecessors!
  br label %133

133:                                              ; preds = %132
  br label %134

134:                                              ; preds = %133, %114
  br label %135

135:                                              ; preds = %134, %131, %111, %89, %68, %44
  %136 = load i8, ptr %9, align 1
  %137 = trunc i8 %136 to i1
  %138 = xor i1 %137, true
  %139 = xor i1 %138, true
  %140 = zext i1 %139 to i32
  %141 = sext i32 %140 to i64
  %142 = icmp ne i64 %141, 0
  br i1 %142, label %143, label %145

143:                                              ; preds = %135
  %144 = call i32 @H5CX_pop(i1 noundef zeroext true)
  store i8 0, ptr %9, align 1
  br label %145

145:                                              ; preds = %143, %135
  %146 = load i8, ptr %10, align 1
  %147 = trunc i8 %146 to i1
  %148 = xor i1 %147, true
  %149 = xor i1 %148, true
  %150 = zext i1 %149 to i32
  %151 = sext i32 %150 to i64
  %152 = icmp ne i64 %151, 0
  br i1 %152, label %153, label %155

153:                                              ; preds = %145
  %154 = call i32 @H5E_dump_api_stack()
  br label %155

155:                                              ; preds = %153, %145
  %156 = load i32, ptr %8, align 4
  ret i32 %156
}