; Function Attrs: nounwind uwtable
define range(i32 -1, -2147483648) i32 @H5Tget_array_dims1(i64 noundef %0, ptr noundef writeonly %1, ptr nocapture noundef readnone %2) local_unnamed_addr #0 {
  %4 = load i8, ptr @H5_libinit_g, align 1
  %5 = trunc i8 %4 to i1
  %6 = load i8, ptr @H5_libterm_g, align 1
  %7 = trunc i8 %6 to i1
  %8 = select i1 %5, i1 true, i1 %7
  br i1 %8, label %16, label %9

9:                                                ; preds = %3
  %10 = tail call i32 @H5_init_library() #5
  %11 = icmp slt i32 %10, 0
  br i1 %11, label %12, label %16

12:                                               ; preds = %9
  %13 = load i64, ptr @H5E_FUNC_g, align 8
  %14 = load i64, ptr @H5E_CANTINIT_g, align 8
  %15 = tail call i32 (ptr, ptr, i32, i64, i64, ptr, ...) @H5E_printf_stack(ptr noundef nonnull @.str, ptr noundef nonnull @__func__.H5Tget_array_dims1, i32 noundef 362, i64 noundef %13, i64 noundef %14, ptr noundef nonnull @.str.1) #5
  br label %.thread23

16:                                               ; preds = %9, %3
  %17 = tail call i32 @H5CX_push() #5
  %18 = icmp slt i32 %17, 0
  br i1 %18, label %19, label %23

19:                                               ; preds = %16
  %20 = load i64, ptr @H5E_FUNC_g, align 8
  %21 = load i64, ptr @H5E_CANTSET_g, align 8
  %22 = tail call i32 (ptr, ptr, i32, i64, i64, ptr, ...) @H5E_printf_stack(ptr noundef nonnull @.str, ptr noundef nonnull @__func__.H5Tget_array_dims1, i32 noundef 362, i64 noundef %20, i64 noundef %21, ptr noundef nonnull @.str.2) #5
  br label %.thread23

23:                                               ; preds = %16
  %24 = tail call i32 @H5E_clear_stack() #5
  %25 = tail call ptr @H5I_object_verify(i64 noundef %0, i32 noundef 3) #5
  %26 = icmp eq ptr %25, null
  br i1 %26, label %27, label %31

27:                                               ; preds = %23
  %28 = load i64, ptr @H5E_ARGS_g, align 8
  %29 = load i64, ptr @H5E_BADTYPE_g, align 8
  %30 = tail call i32 (ptr, ptr, i32, i64, i64, ptr, ...) @H5E_printf_stack(ptr noundef nonnull @.str, ptr noundef nonnull @__func__.H5Tget_array_dims1, i32 noundef 366, i64 noundef %28, i64 noundef %29, ptr noundef nonnull @.str.12) #5
  br label %.thread29

31:                                               ; preds = %23
  %32 = getelementptr inbounds i8, ptr %25, i64 40
  %33 = load ptr, ptr %32, align 8
  %34 = getelementptr inbounds i8, ptr %33, i64 12
  %35 = load i32, ptr %34, align 4
  %.not = icmp eq i32 %35, 10
  br i1 %.not, label %40, label %36

36:                                               ; preds = %31
  %37 = load i64, ptr @H5E_ARGS_g, align 8
  %38 = load i64, ptr @H5E_BADTYPE_g, align 8
  %39 = tail call i32 (ptr, ptr, i32, i64, i64, ptr, ...) @H5E_printf_stack(ptr noundef nonnull @.str, ptr noundef nonnull @__func__.H5Tget_array_dims1, i32 noundef 368, i64 noundef %37, i64 noundef %38, ptr noundef nonnull @.str.13) #5
  br label %.thread29

40:                                               ; preds = %31
  %.not.i = icmp eq ptr %1, null
  %.phi.trans.insert12.i = getelementptr inbounds i8, ptr %33, i64 56
  %.pre13.i = load i32, ptr %.phi.trans.insert12.i, align 8
  br i1 %.not.i, label %H5T__get_array_dims.exit, label %.preheader.i

.preheader.i:                                     ; preds = %40
  %.not10.i = icmp eq i32 %.pre13.i, 0
  br i1 %.not10.i, label %H5T__get_array_dims.exit.thread, label %.lr.ph.i

.lr.ph.i:                                         ; preds = %.preheader.i, %.lr.ph.i
  %indvars.iv.i = phi i64 [ %indvars.iv.next.i, %.lr.ph.i ], [ 0, %.preheader.i ]
  %41 = phi ptr [ %46, %.lr.ph.i ], [ %33, %.preheader.i ]
  %42 = getelementptr inbounds i8, ptr %41, i64 64
  %43 = getelementptr inbounds [32 x i64], ptr %42, i64 0, i64 %indvars.iv.i
  %44 = load i64, ptr %43, align 8
  %45 = getelementptr inbounds i64, ptr %1, i64 %indvars.iv.i
  store i64 %44, ptr %45, align 8
  %indvars.iv.next.i = add nuw nsw i64 %indvars.iv.i, 1
  %46 = load ptr, ptr %32, align 8
  %47 = getelementptr inbounds i8, ptr %46, i64 56
  %48 = load i32, ptr %47, align 8
  %49 = zext i32 %48 to i64
  %50 = icmp ult i64 %indvars.iv.next.i, %49
  br i1 %50, label %.lr.ph.i, label %H5T__get_array_dims.exit

H5T__get_array_dims.exit:                         ; preds = %.lr.ph.i, %40
  %51 = phi i32 [ %.pre13.i, %40 ], [ %48, %.lr.ph.i ]
  %52 = icmp slt i32 %51, 0
  br i1 %52, label %53, label %H5T__get_array_dims.exit.thread

53:                                               ; preds = %H5T__get_array_dims.exit
  %54 = load i64, ptr @H5E_ARGS_g, align 8
  %55 = load i64, ptr @H5E_BADTYPE_g, align 8
  %56 = tail call i32 (ptr, ptr, i32, i64, i64, ptr, ...) @H5E_printf_stack(ptr noundef nonnull @.str, ptr noundef nonnull @__func__.H5Tget_array_dims1, i32 noundef 372, i64 noundef %54, i64 noundef %55, ptr noundef nonnull @.str.14) #5
  br label %.thread29

.thread29:                                        ; preds = %53, %36, %27
  %57 = tail call i32 @H5CX_pop(i1 noundef zeroext true) #5
  br label %.thread23

H5T__get_array_dims.exit.thread:                  ; preds = %.preheader.i, %H5T__get_array_dims.exit
  %.012.ph = phi i32 [ %51, %H5T__get_array_dims.exit ], [ 0, %.preheader.i ]
  %58 = tail call i32 @H5CX_pop(i1 noundef zeroext true) #5
  br label %60

.thread23:                                        ; preds = %19, %12, %.thread29
  %59 = tail call i32 @H5E_dump_api_stack() #5
  br label %60

60:                                               ; preds = %H5T__get_array_dims.exit.thread, %.thread23
  %.0121826 = phi i32 [ -1, %.thread23 ], [ %.012.ph, %H5T__get_array_dims.exit.thread ]
  ret i32 %.0121826
}